Certificate:
    Data:
        Version: 3 (0x2)
        Serial Number: 1 (0x1)
    Signature Algorithm: sha256WithRSAEncryption
        Issuer: O=_RPLC_ORG_NAME, OU=_RPLC_ORG_NAME Root CA, CN=_RPLC_ORG_NAME Root CA
        Validity
            Not Before: Apr  3 08:12:37 2018 GMT
            Not After : Apr  2 08:12:37 2028 GMT
        Subject: O=_RPLC_ORG_NAME, OU=_RPLC_ORG_NAME Root CA, CN=_RPLC_ORG_NAME Root CA
        Subject Public Key Info:
            Public Key Algorithm: rsaEncryption
                Public-Key: (2048 bit)
                Modulus:
                    00:e1:86:3a:31:18:84:e9:99:f4:94:75:6f:71:d4:
                    3c:74:e4:63:e1:43:8c:87:0c:64:4e:48:83:81:f1:
                    1d:b9:d4:9b:18:51:60:d7:5e:94:50:64:07:54:ec:
                    22:b6:c9:c3:ce:4d:a4:be:8a:cd:40:5c:57:d4:43:
                    f6:c6:3c:a8:bc:c1:2f:e7:c5:e1:0f:6c:1f:6a:a7:
                    2c:54:2e:92:1e:68:4d:d3:40:31:2e:15:f0:38:fb:
                    39:ae:f8:53:e7:be:53:40:c3:09:de:78:a1:ce:40:
                    ad:b6:f2:1e:ae:31:ec:f4:c4:60:29:64:50:3a:14:
                    f1:ef:af:33:e4:8c:d2:aa:32:eb:b6:77:47:a9:49:
                    cd:fb:ba:44:f6:6e:ac:94:6d:6e:a4:c7:d4:4c:2b:
                    c3:ff:af:c4:43:b1:36:71:7a:59:5e:1e:49:9b:b3:
                    0a:32:e6:c0:8f:e7:19:45:1b:65:37:55:c5:9d:32:
                    c8:cb:0f:ec:66:2d:ed:a1:b4:70:de:e8:52:a1:cb:
                    5d:f3:81:de:a6:f1:89:c5:06:38:22:2a:42:5e:25:
                    ba:e6:bb:d8:a4:c7:e2:29:f5:e3:e7:6d:a3:e6:0a:
                    c9:55:5b:dc:cb:5a:87:69:b9:92:23:7b:0f:59:d7:
                    f3:36:1e:8f:db:c9:e1:96:f7:55:d9:05:34:3b:aa:
                    78:9b
                Exponent: 65537 (0x10001)
        X509v3 extensions:
            X509v3 Key Usage: critical
                Certificate Sign, CRL Sign
            X509v3 Basic Constraints: critical
                CA:TRUE
            X509v3 Subject Key Identifier: 
                04:2B:79:B0:E7:73:38:24:2C:42:37:0F:5B:67:21:94:E4:CF:56:4B
            X509v3 Authority Key Identifier: 
                keyid:04:2B:79:B0:E7:73:38:24:2C:42:37:0F:5B:67:21:94:E4:CF:56:4B

    Signature Algorithm: sha256WithRSAEncryption
         6c:91:61:44:bf:4d:27:a0:59:be:b9:f0:4f:f5:19:b8:e8:be:
         fb:14:af:20:ce:68:2e:68:09:f4:41:c3:65:22:a8:2e:78:eb:
         ba:f6:6c:a1:2b:4b:a5:89:ba:fb:01:4a:79:24:a3:32:7e:d3:
         df:dc:c3:17:42:b6:66:ca:28:97:62:64:f2:ab:14:70:41:4a:
         04:eb:a1:cf:31:1a:f6:48:14:ff:f1:d1:04:3d:45:fd:fc:9a:
         c4:5a:51:94:23:44:4c:3a:24:60:a9:21:1f:2b:74:f9:42:d6:
         45:22:34:b2:9f:47:54:da:68:b2:f9:c1:cd:07:c6:f5:27:a5:
         3f:bb:75:d5:d5:e7:0d:ee:f7:02:9a:a4:02:61:61:28:88:ce:
         7f:17:f0:bd:27:50:ae:75:4e:d2:b6:16:dc:d7:df:39:61:80:
         7a:8c:32:ea:6f:e5:61:43:76:01:53:67:32:28:e3:57:21:95:
         43:15:61:7a:08:a3:c8:1d:da:47:22:21:f2:c9:21:4e:de:80:
         ee:6f:e0:08:64:25:5b:b8:a0:f7:35:d1:69:46:6d:8a:d4:4c:
         16:1f:b7:f3:9f:78:78:0b:22:2e:bc:c1:fe:a6:f4:65:c3:86:
         75:21:cf:75:96:0f:c5:50:5c:29:f3:c8:a6:5b:cc:b5:11:50:
         7c:34:a4:a1
-----BEGIN CERTIFICATE-----
MIIDlDCCAnygAwIBAgIBATANBgkqhkiG9w0BAQsFADBbMRcwFQYDVQQKDA5fUlBM
Q19PUkdfTkFNRTEfMB0GA1UECwwWX1JQTENfT1JHX05BTUUgUm9vdCBDQTEfMB0G
A1UEAwwWX1JQTENfT1JHX05BTUUgUm9vdCBDQTAeFw0xODA0MDMwODEyMzdaFw0y
ODA0MDIwODEyMzdaMFsxFzAVBgNVBAoMDl9SUExDX09SR19OQU1FMR8wHQYDVQQL
DBZfUlBMQ19PUkdfTkFNRSBSb290IENBMR8wHQYDVQQDDBZfUlBMQ19PUkdfTkFN
RSBSb290IENBMIIBIjANBgkqhkiG9w0BAQEFAAOCAQ8AMIIBCgKCAQEA4YY6MRiE
6Zn0lHVvcdQ8dORj4UOMhwxkTkiDgfEdudSbGFFg116UUGQHVOwitsnDzk2kvorN
QFxX1EP2xjyovMEv58XhD2wfaqcsVC6SHmhN00AxLhXwOPs5rvhT575TQMMJ3nih
zkCttvIerjHs9MRgKWRQOhTx768z5IzSqjLrtndHqUnN+7pE9m6slG1upMfUTCvD
/6/EQ7E2cXpZXh5Jm7MKMubAj+cZRRtlN1XFnTLIyw/sZi3tobRw3uhSoctd84He
pvGJxQY4IipCXiW65rvYpMfiKfXj522j5grJVVvcy1qHabmSI3sPWdfzNh6P28nh
lvdV2QU0O6p4mwIDAQABo2MwYTAOBgNVHQ8BAf8EBAMCAQYwDwYDVR0TAQH/BAUw
AwEB/zAdBgNVHQ4EFgQUBCt5sOdzOCQsQjcPW2chlOTPVkswHwYDVR0jBBgwFoAU
BCt5sOdzOCQsQjcPW2chlOTPVkswDQYJKoZIhvcNAQELBQADggEBAGyRYUS/TSeg
Wb658E/1GbjovvsUryDOaC5oCfRBw2UiqC5467r2bKErS6WJuvsBSnkkozJ+09/c
wxdCtmbKKJdiZPKrFHBBSgTroc8xGvZIFP/x0QQ9Rf38msRaUZQjREw6JGCpIR8r
dPlC1kUiNLKfR1TaaLL5wc0HxvUnpT+7ddXV5w3u9wKapAJhYSiIzn8X8L0nUK51
TtK2FtzX3zlhgHqMMupv5WFDdgFTZzIo41chlUMVYXoIo8gd2kciIfLJIU7egO5v
4AhkJVu4oPc10WlGbYrUTBYft/OfeHgLIi68wf6m9GXDhnUhz3WWD8VQXCnzyKZb
zLURUHw0pKE=
-----END CERTIFICATE-----
