Certificate:
    Data:
        Version: 3 (0x2)
        Serial Number: 2 (0x2)
    Signature Algorithm: sha256WithRSAEncryption
        Issuer: O=_RPLC_ORG_NAME, OU=_RPLC_ORG_NAME Root CA, CN=_RPLC_ORG_NAME Root CA
        Validity
            Not Before: Apr  3 08:12:37 2018 GMT
            Not After : Apr  2 08:12:37 2028 GMT
        Subject: O=_RPLC_ORG_NAME, OU=_RPLC_ORG_NAME Signing CA, CN=_RPLC_ORG_NAME Signing CA
        Subject Public Key Info:
            Public Key Algorithm: rsaEncryption
                Public-Key: (2048 bit)
                Modulus:
                    00:db:60:b1:24:0e:0c:34:37:7f:97:22:95:a5:b9:
                    07:81:cc:40:c3:84:5d:76:00:d3:76:14:69:0e:ae:
                    70:ad:7f:23:76:de:a2:f5:45:2d:47:cf:64:0f:cd:
                    80:91:e7:ef:71:bd:79:1b:24:fb:08:e0:1d:9e:63:
                    95:0a:21:5e:f4:a5:c8:c8:93:b2:ac:f1:ba:95:e8:
                    55:39:e3:53:91:f9:ca:77:52:f1:e0:ff:1a:90:9d:
                    98:72:98:3f:a7:5c:7d:7b:2d:1c:83:d4:b6:66:2f:
                    1e:a7:37:72:ff:e4:b8:4d:18:a3:24:e2:21:28:2b:
                    fa:69:d8:14:f1:ff:4c:1f:70:ab:30:41:d6:4b:9e:
                    c3:bc:20:eb:04:87:ab:b4:ce:0a:3b:6e:de:11:cd:
                    de:87:62:38:ac:84:48:4c:8b:42:0e:12:4c:c4:4b:
                    be:2a:1d:d9:f7:0a:80:ac:30:4d:7a:26:76:75:d5:
                    84:0f:93:4c:09:e9:02:76:bc:07:4b:fe:ef:f1:7e:
                    ee:fb:33:5c:18:cf:69:11:4d:1c:ed:f3:ea:63:d4:
                    49:6a:d2:be:41:4a:73:82:4a:93:8d:07:96:59:f9:
                    94:68:43:b4:3a:34:7f:b4:6b:fc:e9:81:24:a2:be:
                    f4:57:b2:41:9d:b8:21:73:09:2a:6f:a1:c7:01:07:
                    d2:4d
                Exponent: 65537 (0x10001)
        X509v3 extensions:
            X509v3 Key Usage: critical
                Certificate Sign, CRL Sign
            X509v3 Basic Constraints: critical
                CA:TRUE, pathlen:0
            X509v3 Subject Key Identifier: 
                1C:29:1C:70:FE:36:A0:15:9B:90:ED:AF:F7:D5:AB:C7:03:A7:2F:8B
            X509v3 Authority Key Identifier: 
                keyid:04:2B:79:B0:E7:73:38:24:2C:42:37:0F:5B:67:21:94:E4:CF:56:4B

    Signature Algorithm: sha256WithRSAEncryption
         46:4f:f6:fd:0d:17:e6:4c:ed:4b:8c:63:ac:95:45:64:94:59:
         d0:30:62:bc:a2:a5:91:21:a8:ae:e6:fa:d6:c5:fd:f9:f8:24:
         03:ba:06:8b:00:9b:e4:42:c9:11:1f:1d:05:6a:2d:fc:cb:0c:
         20:2f:8b:9c:82:d8:aa:e0:75:3a:d2:c9:18:78:66:6c:09:7c:
         d6:49:32:c5:bf:48:fd:ec:2f:58:48:8e:ff:da:78:12:0a:ca:
         1b:22:6d:2c:9d:c1:d2:63:fb:bc:5a:7c:f3:65:b0:c3:a5:54:
         dc:07:91:6d:ba:77:44:7c:46:47:e4:ed:85:31:58:5c:49:1b:
         2b:67:84:7f:08:ad:93:de:70:1e:cc:b1:21:38:5e:e8:49:6e:
         fc:92:92:7d:44:e5:d9:bf:86:9a:eb:3d:c7:7d:c5:c6:dd:7f:
         43:d5:a9:96:e5:53:d6:f7:22:1f:16:b7:92:7f:4d:56:05:1f:
         3e:73:54:d0:d7:cf:fa:87:5b:a8:4d:b1:72:cf:93:2d:c0:5c:
         5b:c9:22:f3:93:17:27:1a:8b:8e:89:3b:0d:ae:ec:5d:fc:33:
         b1:fa:d5:b9:54:4d:c8:49:4d:37:3c:08:6e:77:d0:90:f1:76:
         1e:af:c0:9c:da:eb:3e:64:40:87:8f:ea:37:2a:06:0c:e7:21:
         15:7c:80:47
-----BEGIN CERTIFICATE-----
MIIDnTCCAoWgAwIBAgIBAjANBgkqhkiG9w0BAQsFADBbMRcwFQYDVQQKDA5fUlBM
Q19PUkdfTkFNRTEfMB0GA1UECwwWX1JQTENfT1JHX05BTUUgUm9vdCBDQTEfMB0G
A1UEAwwWX1JQTENfT1JHX05BTUUgUm9vdCBDQTAeFw0xODA0MDMwODEyMzdaFw0y
ODA0MDIwODEyMzdaMGExFzAVBgNVBAoMDl9SUExDX09SR19OQU1FMSIwIAYDVQQL
DBlfUlBMQ19PUkdfTkFNRSBTaWduaW5nIENBMSIwIAYDVQQDDBlfUlBMQ19PUkdf
TkFNRSBTaWduaW5nIENBMIIBIjANBgkqhkiG9w0BAQEFAAOCAQ8AMIIBCgKCAQEA
22CxJA4MNDd/lyKVpbkHgcxAw4RddgDTdhRpDq5wrX8jdt6i9UUtR89kD82Akefv
cb15GyT7COAdnmOVCiFe9KXIyJOyrPG6lehVOeNTkfnKd1Lx4P8akJ2Ycpg/p1x9
ey0cg9S2Zi8epzdy/+S4TRijJOIhKCv6adgU8f9MH3CrMEHWS57DvCDrBIertM4K
O27eEc3eh2I4rIRITItCDhJMxEu+Kh3Z9wqArDBNeiZ2ddWED5NMCekCdrwHS/7v
8X7u+zNcGM9pEU0c7fPqY9RJatK+QUpzgkqTjQeWWfmUaEO0OjR/tGv86YEkor70
V7JBnbghcwkqb6HHAQfSTQIDAQABo2YwZDAOBgNVHQ8BAf8EBAMCAQYwEgYDVR0T
AQH/BAgwBgEB/wIBADAdBgNVHQ4EFgQUHCkccP42oBWbkO2v99WrxwOnL4swHwYD
VR0jBBgwFoAUBCt5sOdzOCQsQjcPW2chlOTPVkswDQYJKoZIhvcNAQELBQADggEB
AEZP9v0NF+ZM7UuMY6yVRWSUWdAwYryipZEhqK7m+tbF/fn4JAO6BosAm+RCyREf
HQVqLfzLDCAvi5yC2KrgdTrSyRh4ZmwJfNZJMsW/SP3sL1hIjv/aeBIKyhsibSyd
wdJj+7xafPNlsMOlVNwHkW26d0R8Rkfk7YUxWFxJGytnhH8IrZPecB7MsSE4XuhJ
bvySkn1E5dm/hprrPcd9xcbdf0PVqZblU9b3Ih8Wt5J/TVYFHz5zVNDXz/qHW6hN
sXLPky3AXFvJIvOTFycai46JOw2u7F38M7H61blUTchJTTc8CG530JDxdh6vwJza
6z5kQIeP6jcqBgznIRV8gEc=
-----END CERTIFICATE-----
